Certificate:
    Data:
        Version: 3 (0x2)
        Serial Number: 4096 (0x1000)
    Signature Algorithm: sha256WithRSAEncryption
        Issuer: C=DE, ST=Nowhere, L=Nowhere, O=Nowhere, OU=Nowhere, CN=test-pki-ca
        Validity
            Not Before: Feb 29 23:57:34 2020 GMT
            Not After : Feb 26 23:57:34 2030 GMT
        Subject: C=DE, ST=Nowhere, O=Nowhere, OU=Nowhere, CN=localhost
        Subject Public Key Info:
            Public Key Algorithm: rsaEncryption
                Public-Key: (2048 bit)
                Modulus:
                    00:b0:59:99:6a:f1:89:23:6f:ad:2b:89:6a:01:3a:
                    c1:fb:01:a2:98:6c:72:dd:fb:5f:6a:81:ce:ef:64:
                    b6:1e:f1:18:39:5b:d4:a6:77:04:87:6e:fe:b5:e4:
                    1a:2b:e9:91:cc:c4:f4:52:07:ae:bd:13:17:70:66:
                    1f:9d:1c:20:97:d1:8f:e0:e3:c0:d8:0b:62:d1:c0:
                    b4:e8:9c:b7:f5:a6:ef:79:c8:b6:f4:97:94:32:3b:
                    46:82:09:fb:70:3e:aa:0e:e6:2f:68:3d:49:ba:5a:
                    1d:f7:28:7f:2f:df:44:b1:37:a9:ff:24:d3:30:c7:
                    2a:82:9a:8d:40:3a:b9:00:6a:92:56:e8:b4:93:ab:
                    56:57:1f:2a:7a:09:47:9e:5b:57:da:72:d0:ef:cf:
                    5b:e0:9a:32:6c:42:84:6a:68:c2:82:a4:f2:b3:99:
                    8c:17:09:66:f0:49:3c:69:e7:43:79:16:32:d7:cb:
                    09:79:93:81:8a:8c:9b:6c:2f:9f:f3:d4:9b:b8:29:
                    15:f3:cb:1e:57:f8:12:f9:f8:d6:c1:0e:18:57:8b:
                    e2:20:84:67:2a:ca:58:69:20:e8:e3:a4:73:24:32:
                    98:c8:99:65:d7:3c:9a:00:91:37:d5:62:dd:ff:77:
                    e3:a0:50:b8:12:97:10:0d:51:eb:e4:1a:b4:e8:78:
                    dd:33
                Exponent: 65537 (0x10001)
        X509v3 extensions:
            X509v3 Basic Constraints: 
                CA:FALSE
            Netscape Cert Type: 
                SSL Server
            X509v3 Subject Key Identifier: 
                CB:CF:E0:D1:3C:77:EC:E3:44:79:C1:5E:5A:B4:13:48:5A:D1:BC:F2
            X509v3 Authority Key Identifier: 
                keyid:A3:EE:5A:3F:CC:7E:21:69:78:EB:FA:AD:8C:47:CF:C8:02:AE:E9:D0
                DirName:/C=DE/ST=Nowhere/L=Nowhere/O=Nowhere/OU=Nowhere/CN=test-pki-ca
                serial:D7:0A:F7:69:1C:86:91:B3

            X509v3 Key Usage: critical
                Digital Signature, Key Encipherment
            X509v3 Extended Key Usage: 
                TLS Web Server Authentication
            X509v3 Subject Alternative Name: 
                DNS:localhost
    Signature Algorithm: sha256WithRSAEncryption
         bb:fb:47:33:3c:51:63:f8:8e:06:68:16:47:11:e9:fb:9b:4b:
         42:67:e8:3b:01:9a:62:2f:e6:a5:f7:8b:eb:17:bd:ee:73:bc:
         43:52:ad:14:dc:76:71:61:5f:97:8e:6c:86:8f:10:32:eb:34:
         62:28:cc:f4:44:bc:65:16:4a:5e:a3:1d:c8:23:cb:fb:1c:00:
         ba:f2:1a:4b:fe:bd:e8:35:85:1b:a1:b9:25:6d:a3:c3:56:ca:
         c1:f1:b6:12:aa:c2:e8:05:e2:36:3f:25:d5:08:c2:ab:1e:5f:
         9e:61:bc:41:9d:57:3c:9b:b5:b7:e9:b3:5b:f9:33:d4:64:fd:
         55:d7:73:ab:3e:13:39:bc:72:b4:5e:7d:1d:32:b4:0f:2c:a8:
         63:82:8a:22:74:a0:76:7f:5c:10:aa:1c:35:6f:10:b5:53:6a:
         f6:8b:e7:2c:de:ce:a7:22:e7:17:15:6b:95:7f:e6:f9:73:91:
         f3:c4:a8:a6:d5:ba:aa:ca:93:53:e6:ee:1a:8c:05:5c:e8:fb:
         a2:48:19:af:7a:b9:49:3a:86:e6:0e:e8:62:24:35:79:9c:b8:
         ce:81:e2:0e:4e:85:e8:d1:02:c2:ae:30:0a:35:d5:d8:1f:70:
         36:7f:3c:f7:73:6b:2b:74:53:f8:5b:7e:12:02:b0:7b:72:fa:
         91:3a:c3:4b
-----BEGIN CERTIFICATE-----
MIIEXDCCA0SgAwIBAgICEAAwDQYJKoZIhvcNAQELBQAwazELMAkGA1UEBhMCREUx
EDAOBgNVBAgMB05vd2hlcmUxEDAOBgNVBAcMB05vd2hlcmUxEDAOBgNVBAoMB05v
d2hlcmUxEDAOBgNVBAsMB05vd2hlcmUxFDASBgNVBAMMC3Rlc3QtcGtpLWNhMB4X
DTIwMDIyOTIzNTczNFoXDTMwMDIyNjIzNTczNFowVzELMAkGA1UEBhMCREUxEDAO
BgNVBAgMB05vd2hlcmUxEDAOBgNVBAoMB05vd2hlcmUxEDAOBgNVBAsMB05vd2hl
cmUxEjAQBgNVBAMMCWxvY2FsaG9zdDCCASIwDQYJKoZIhvcNAQEBBQADggEPADCC
AQoCggEBALBZmWrxiSNvrSuJagE6wfsBophsct37X2qBzu9kth7xGDlb1KZ3BIdu
/rXkGivpkczE9FIHrr0TF3BmH50cIJfRj+DjwNgLYtHAtOict/Wm73nItvSXlDI7
RoIJ+3A+qg7mL2g9SbpaHfcofy/fRLE3qf8k0zDHKoKajUA6uQBqklbotJOrVlcf
KnoJR55bV9py0O/PW+CaMmxChGpowoKk8rOZjBcJZvBJPGnnQ3kWMtfLCXmTgYqM
m2wvn/PUm7gpFfPLHlf4Evn41sEOGFeL4iCEZyrKWGkg6OOkcyQymMiZZdc8mgCR
N9Vi3f9346BQuBKXEA1R6+QatOh43TMCAwEAAaOCARwwggEYMAkGA1UdEwQCMAAw
EQYJYIZIAYb4QgEBBAQDAgZAMB0GA1UdDgQWBBTLz+DRPHfs40R5wV5atBNIWtG8
8jCBnQYDVR0jBIGVMIGSgBSj7lo/zH4haXjr+q2MR8/IAq7p0KFvpG0wazELMAkG
A1UEBhMCREUxEDAOBgNVBAgMB05vd2hlcmUxEDAOBgNVBAcMB05vd2hlcmUxEDAO
BgNVBAoMB05vd2hlcmUxEDAOBgNVBAsMB05vd2hlcmUxFDASBgNVBAMMC3Rlc3Qt
cGtpLWNhggkA1wr3aRyGkbMwDgYDVR0PAQH/BAQDAgWgMBMGA1UdJQQMMAoGCCsG
AQUFBwMBMBQGA1UdEQQNMAuCCWxvY2FsaG9zdDANBgkqhkiG9w0BAQsFAAOCAQEA
u/tHMzxRY/iOBmgWRxHp+5tLQmfoOwGaYi/mpfeL6xe97nO8Q1KtFNx2cWFfl45s
ho8QMus0YijM9ES8ZRZKXqMdyCPL+xwAuvIaS/696DWFG6G5JW2jw1bKwfG2EqrC
6AXiNj8l1QjCqx5fnmG8QZ1XPJu1t+mzW/kz1GT9Vddzqz4TObxytF59HTK0Dyyo
Y4KKInSgdn9cEKocNW8QtVNq9ovnLN7OpyLnFxVrlX/m+XOR88SoptW6qsqTU+bu
GowFXOj7okgZr3q5STqG5g7oYiQ1eZy4zoHiDk6F6NECwq4wCjXV2B9wNn8893Nr
K3RT+Ft+EgKwe3L6kTrDSw==
-----END CERTIFICATE-----
